; Function Attrs: nounwind uwtable
define dso_local void @Curl_pollset_add_socks(ptr noundef %0, ptr noundef captures(none) %1, ptr noundef readonly captures(none) %2) local_unnamed_addr #1 {
  %4 = alloca [5 x i32], align 16
  call void @llvm.lifetime.start.p0(i64 20, ptr nonnull %4) #12
  %5 = call i32 %2(ptr noundef %0, ptr noundef nonnull %4) #12
  %.not.i = icmp eq i32 %5, 0
  br i1 %.not.i, label %ps_add.exit, label %.preheader.i

.preheader.i:                                     ; preds = %3
  %6 = getelementptr inbounds nuw i8, ptr %1, i64 20
  %7 = getelementptr inbounds nuw i8, ptr %1, i64 24
  br label %8

8:                                                ; preds = %Curl_pollset_change.exit.i, %.preheader.i
  %indvars.iv.i = phi i64 [ 0, %.preheader.i ], [ %indvars.iv.next.i, %Curl_pollset_change.exit.i ]
  %9 = trunc nuw nsw i64 %indvars.iv.i to i32
  %10 = shl nuw nsw i32 1, %9
  %11 = shl nuw nsw i32 65536, %9
  %12 = shl nuw nsw i32 65537, %9
  %13 = and i32 %12, %5
  %.not25.i = icmp eq i32 %13, 0
  br i1 %.not25.i, label %ps_add.exit, label %14

14:                                               ; preds = %8
  %15 = getelementptr inbounds nuw i32, ptr %4, i64 %indvars.iv.i
  %16 = load i32, ptr %15, align 4, !tbaa !44
  %17 = icmp sgt i32 %16, -1
  br i1 %17, label %18, label %ps_add.exit

18:                                               ; preds = %14
  %19 = and i32 %10, %5
  %.not26.i = icmp eq i32 %19, 0
  br i1 %.not26.i, label %.preheader.i38.i, label %20

20:                                               ; preds = %18
  %21 = and i32 %11, %5
  %.not27.i = icmp eq i32 %21, 0
  %22 = load i32, ptr %6, align 4, !tbaa !143
  %.not51.i29.i = icmp eq i32 %22, 0
  br i1 %.not27.i, label %.preheader.i28.i, label %.preheader.i.i

.preheader.i.i:                                   ; preds = %20
  br i1 %.not51.i29.i, label %._crit_edge.i.thread.i, label %.lr.ph.preheader.i.i

.lr.ph.preheader.i.i:                             ; preds = %.preheader.i.i
  %wide.trip.count.i.i = zext i32 %22 to i64
  br label %.lr.ph.i.i

.lr.ph.i.i:                                       ; preds = %30, %.lr.ph.preheader.i.i
  %indvars.iv.i.i = phi i64 [ 0, %.lr.ph.preheader.i.i ], [ %indvars.iv.next.i.i, %30 ]
  %23 = getelementptr inbounds nuw [5 x i32], ptr %1, i64 0, i64 %indvars.iv.i.i
  %24 = load i32, ptr %23, align 4, !tbaa !44
  %25 = icmp eq i32 %24, %16
  br i1 %25, label %26, label %30

26:                                               ; preds = %.lr.ph.i.i
  %27 = getelementptr inbounds nuw [5 x i8], ptr %7, i64 0, i64 %indvars.iv.i.i
  %28 = load i8, ptr %27, align 1, !tbaa !144
  %29 = or i8 %28, 3
  store i8 %29, ptr %27, align 1, !tbaa !144
  br label %Curl_pollset_change.exit.i

30:                                               ; preds = %.lr.ph.i.i
  %indvars.iv.next.i.i = add nuw nsw i64 %indvars.iv.i.i, 1
  %exitcond.not.i.i = icmp eq i64 %indvars.iv.next.i.i, %wide.trip.count.i.i
  br i1 %exitcond.not.i.i, label %._crit_edge.i.i, label %.lr.ph.i.i, !llvm.loop !150

._crit_edge.i.i:                                  ; preds = %30
  %31 = icmp ult i32 %22, 5
  br i1 %31, label %._crit_edge.i.thread.i, label %Curl_pollset_change.exit.i

._crit_edge.i.thread.i:                           ; preds = %._crit_edge.i.i, %.preheader.i.i
  %.pre-phi12.i = phi i64 [ %wide.trip.count.i.i, %._crit_edge.i.i ], [ 0, %.preheader.i.i ]
  %32 = getelementptr inbounds nuw [5 x i32], ptr %1, i64 0, i64 %.pre-phi12.i
  store i32 %16, ptr %32, align 4, !tbaa !44
  %33 = getelementptr inbounds nuw [5 x i8], ptr %7, i64 0, i64 %.pre-phi12.i
  store i8 3, ptr %33, align 1, !tbaa !144
  %34 = add nuw nsw i32 %22, 1
  store i32 %34, ptr %6, align 4, !tbaa !143
  br label %Curl_pollset_change.exit.i

.preheader.i28.i:                                 ; preds = %20
  br i1 %.not51.i29.i, label %._crit_edge.i36.thread.i, label %.lr.ph.preheader.i30.i

.lr.ph.preheader.i30.i:                           ; preds = %.preheader.i28.i
  %wide.trip.count.i31.i = zext i32 %22 to i64
  br label %.lr.ph.i32.i

.lr.ph.i32.i:                                     ; preds = %42, %.lr.ph.preheader.i30.i
  %indvars.iv.i33.i = phi i64 [ 0, %.lr.ph.preheader.i30.i ], [ %indvars.iv.next.i34.i, %42 ]
  %35 = getelementptr inbounds nuw [5 x i32], ptr %1, i64 0, i64 %indvars.iv.i33.i
  %36 = load i32, ptr %35, align 4, !tbaa !44
  %37 = icmp eq i32 %36, %16
  br i1 %37, label %38, label %42

38:                                               ; preds = %.lr.ph.i32.i
  %39 = getelementptr inbounds nuw [5 x i8], ptr %7, i64 0, i64 %indvars.iv.i33.i
  %40 = load i8, ptr %39, align 1, !tbaa !144
  %41 = or i8 %40, 1
  store i8 %41, ptr %39, align 1, !tbaa !144
  br label %Curl_pollset_change.exit.i

42:                                               ; preds = %.lr.ph.i32.i
  %indvars.iv.next.i34.i = add nuw nsw i64 %indvars.iv.i33.i, 1
  %exitcond.not.i35.i = icmp eq i64 %indvars.iv.next.i34.i, %wide.trip.count.i31.i
  br i1 %exitcond.not.i35.i, label %._crit_edge.i36.i, label %.lr.ph.i32.i, !llvm.loop !150

._crit_edge.i36.i:                                ; preds = %42
  %43 = icmp ult i32 %22, 5
  br i1 %43, label %._crit_edge.i36.thread.i, label %Curl_pollset_change.exit.i

._crit_edge.i36.thread.i:                         ; preds = %._crit_edge.i36.i, %.preheader.i28.i
  %.pre-phi10.i = phi i64 [ %wide.trip.count.i31.i, %._crit_edge.i36.i ], [ 0, %.preheader.i28.i ]
  %44 = getelementptr inbounds nuw [5 x i32], ptr %1, i64 0, i64 %.pre-phi10.i
  store i32 %16, ptr %44, align 4, !tbaa !44
  %45 = getelementptr inbounds nuw [5 x i8], ptr %7, i64 0, i64 %.pre-phi10.i
  store i8 1, ptr %45, align 1, !tbaa !144
  %46 = add nuw nsw i32 %22, 1
  store i32 %46, ptr %6, align 4, !tbaa !143
  br label %Curl_pollset_change.exit.i

.preheader.i38.i:                                 ; preds = %18
  %47 = load i32, ptr %6, align 4, !tbaa !143
  %.not51.i39.i = icmp eq i32 %47, 0
  br i1 %.not51.i39.i, label %._crit_edge.i46.thread.i, label %.lr.ph.preheader.i40.i

.lr.ph.preheader.i40.i:                           ; preds = %.preheader.i38.i
  %wide.trip.count.i41.i = zext i32 %47 to i64
  br label %.lr.ph.i42.i

.lr.ph.i42.i:                                     ; preds = %55, %.lr.ph.preheader.i40.i
  %indvars.iv.i43.i = phi i64 [ 0, %.lr.ph.preheader.i40.i ], [ %indvars.iv.next.i44.i, %55 ]
  %48 = getelementptr inbounds nuw [5 x i32], ptr %1, i64 0, i64 %indvars.iv.i43.i
  %49 = load i32, ptr %48, align 4, !tbaa !44
  %50 = icmp eq i32 %49, %16
  br i1 %50, label %51, label %55

51:                                               ; preds = %.lr.ph.i42.i
  %52 = getelementptr inbounds nuw [5 x i8], ptr %7, i64 0, i64 %indvars.iv.i43.i
  %53 = load i8, ptr %52, align 1, !tbaa !144
  %54 = or i8 %53, 2
  store i8 %54, ptr %52, align 1, !tbaa !144
  br label %Curl_pollset_change.exit.i

55:                                               ; preds = %.lr.ph.i42.i
  %indvars.iv.next.i44.i = add nuw nsw i64 %indvars.iv.i43.i, 1
  %exitcond.not.i45.i = icmp eq i64 %indvars.iv.next.i44.i, %wide.trip.count.i41.i
  br i1 %exitcond.not.i45.i, label %._crit_edge.i46.i, label %.lr.ph.i42.i, !llvm.loop !150

._crit_edge.i46.i:                                ; preds = %55
  %56 = icmp ult i32 %47, 5
  br i1 %56, label %._crit_edge.i46.thread.i, label %Curl_pollset_change.exit.i

._crit_edge.i46.thread.i:                         ; preds = %._crit_edge.i46.i, %.preheader.i38.i
  %.pre-phi.i = phi i64 [ %wide.trip.count.i41.i, %._crit_edge.i46.i ], [ 0, %.preheader.i38.i ]
  %57 = getelementptr inbounds nuw [5 x i32], ptr %1, i64 0, i64 %.pre-phi.i
  store i32 %16, ptr %57, align 4, !tbaa !44
  %58 = getelementptr inbounds nuw [5 x i8], ptr %7, i64 0, i64 %.pre-phi.i
  store i8 2, ptr %58, align 1, !tbaa !144
  %59 = add nuw nsw i32 %47, 1
  store i32 %59, ptr %6, align 4, !tbaa !143
  br label %Curl_pollset_change.exit.i

Curl_pollset_change.exit.i:                       ; preds = %._crit_edge.i46.thread.i, %._crit_edge.i46.i, %51, %._crit_edge.i36.thread.i, %._crit_edge.i36.i, %38, %._crit_edge.i.thread.i, %._crit_edge.i.i, %26
  %indvars.iv.next.i = add nuw nsw i64 %indvars.iv.i, 1
  %exitcond.not.i = icmp eq i64 %indvars.iv.next.i, 5
  br i1 %exitcond.not.i, label %ps_add.exit, label %8, !llvm.loop !151

ps_add.exit:                                      ; preds = %8, %14, %Curl_pollset_change.exit.i, %3
  call void @llvm.lifetime.end.p0(i64 20, ptr nonnull %4) #12
  ret void
}